; Function Attrs: nounwind uwtable
define internal fastcc noalias nonnull ptr @_init_l_Lean_Elab_Term_runTactic___lambda__7___closed__2() unnamed_addr #0 {
  %1 = load ptr, ptr @l_Lean_instantiateLCtxMVars___at_Lean_Elab_Term_runTactic___spec__3___closed__2, align 8, !tbaa !10
  tail call void @lean_inc_heartbeat() #7
  %2 = tail call noalias ptr @mi_malloc_small(i64 noundef 56) #7
  %3 = icmp eq ptr %2, null
  br i1 %3, label %4, label %lean_alloc_ctor.exit

4:                                                ; preds = %0
  tail call void @lean_internal_panic_out_of_memory() #8
  unreachable

lean_alloc_ctor.exit:                             ; preds = %0
  %5 = getelementptr inbounds nuw i8, ptr %2, i64 4
  store i32 1, ptr %2, align 4, !tbaa !7
  store i32 393272, ptr %5, align 4
  %6 = getelementptr inbounds nuw i8, ptr %2, i64 8
  store ptr %1, ptr %6, align 8, !tbaa !10
  %7 = getelementptr inbounds nuw i8, ptr %2, i64 16
  store ptr %1, ptr %7, align 8, !tbaa !10
  %8 = getelementptr inbounds nuw i8, ptr %2, i64 24
  store ptr %1, ptr %8, align 8, !tbaa !10
  %9 = getelementptr inbounds nuw i8, ptr %2, i64 32
  store ptr %1, ptr %9, align 8, !tbaa !10
  %10 = getelementptr inbounds nuw i8, ptr %2, i64 40
  store ptr %1, ptr %10, align 8, !tbaa !10
  %11 = getelementptr inbounds nuw i8, ptr %2, i64 48
  store ptr %1, ptr %11, align 8, !tbaa !10
  ret ptr %2
}